; Function Attrs: mustprogress nofree norecurse nosync nounwind memory(argmem: readwrite) uwtable
define internal void @_ZN12_GLOBAL__N_113hlineResizeCnIsNS_12fixedpoint32ELi2ELb1ELi1EEEvPT_iPiPT0_S6_iii(ptr noundef readonly captures(none) %0, i32 %1, ptr noundef readonly captures(none) %2, ptr noundef readonly captures(none) %3, ptr noundef writeonly captures(none) %4, i32 noundef %5, i32 noundef %6, i32 noundef %7) #17 {
  %9 = load i16, ptr %0, align 2, !tbaa !70
  %10 = sext i16 %9 to i32
  %11 = shl nsw i32 %10, 16
  %12 = icmp sgt i32 %5, 0
  br i1 %12, label %.lr.ph.i, label %.preheader.i

.preheader.i:                                     ; preds = %.lr.ph.i, %8
  %.028.lcssa.i = phi ptr [ %4, %8 ], [ %15, %.lr.ph.i ]
  %.026.lcssa.i = phi i32 [ 0, %8 ], [ %5, %.lr.ph.i ]
  %.0.lcssa.i = phi ptr [ %3, %8 ], [ %17, %.lr.ph.i ]
  %13 = icmp slt i32 %.026.lcssa.i, %6
  br i1 %13, label %.lr.ph44.preheader.i, label %._crit_edge.i

.lr.ph44.preheader.i:                             ; preds = %.preheader.i
  %14 = zext nneg i32 %.026.lcssa.i to i64
  %wide.trip.count.i = zext nneg i32 %6 to i64
  br label %.lr.ph44.i

.lr.ph.i:                                         ; preds = %8, %.lr.ph.i
  %.038.i = phi ptr [ %17, %.lr.ph.i ], [ %3, %8 ]
  %.02637.i = phi i32 [ %16, %.lr.ph.i ], [ 0, %8 ]
  %.02836.i = phi ptr [ %15, %.lr.ph.i ], [ %4, %8 ]
  %15 = getelementptr inbounds nuw i8, ptr %.02836.i, i64 4
  store i32 %11, ptr %.02836.i, align 4, !tbaa !985
  %16 = add nuw nsw i32 %.02637.i, 1
  %17 = getelementptr inbounds nuw i8, ptr %.038.i, i64 8
  %exitcond.not.i = icmp eq i32 %16, %5
  br i1 %exitcond.not.i, label %.preheader.i, label %.lr.ph.i, !llvm.loop !1237

.lr.ph44.i:                                       ; preds = %.lr.ph44.i, %.lr.ph44.preheader.i
  %indvars.iv.i = phi i64 [ %14, %.lr.ph44.preheader.i ], [ %indvars.iv.next.i, %.lr.ph44.i ]
  %.143.i = phi ptr [ %.0.lcssa.i, %.lr.ph44.preheader.i ], [ %48, %.lr.ph44.i ]
  %.12941.i = phi ptr [ %.028.lcssa.i, %.lr.ph44.preheader.i ], [ %47, %.lr.ph44.i ]
  %18 = getelementptr inbounds nuw i32, ptr %2, i64 %indvars.iv.i
  %19 = load i32, ptr %18, align 4, !tbaa !16
  %20 = sext i32 %19 to i64
  %21 = getelementptr inbounds i16, ptr %0, i64 %20
  %22 = load i32, ptr %.143.i, align 4, !tbaa !985, !noalias !1238
  %23 = sext i32 %22 to i64
  %24 = load i16, ptr %21, align 2, !tbaa !70, !noalias !1238
  %25 = sext i16 %24 to i64
  %26 = mul nsw i64 %25, %23
  %27 = tail call i64 @llvm.smax.i64(i64 range(i64 -70368744144896, 70368744177665) %26, i64 -2147483648)
  %28 = tail call i64 @llvm.smin.i64(i64 %27, i64 2147483647)
  %29 = trunc nsw i64 %28 to i32
  %30 = getelementptr inbounds nuw i8, ptr %.143.i, i64 4
  %31 = getelementptr inbounds nuw i8, ptr %21, i64 2
  %32 = load i32, ptr %30, align 4, !tbaa !985, !noalias !1241
  %33 = sext i32 %32 to i64
  %34 = load i16, ptr %31, align 2, !tbaa !70, !noalias !1241
  %35 = sext i16 %34 to i64
  %36 = mul nsw i64 %35, %33
  %37 = tail call i64 @llvm.smax.i64(i64 range(i64 -70368744144896, 70368744177665) %36, i64 -2147483648)
  %38 = tail call i64 @llvm.smin.i64(i64 %37, i64 2147483647)
  %39 = trunc nsw i64 %38 to i32
  %40 = add nsw i32 %39, %29
  %41 = xor i32 %40, %29
  %42 = xor i32 %40, %39
  %43 = and i32 %41, %42
  %44 = and i32 %40, -2147483648
  %45 = xor i32 %44, -1
  %.not6.i.i = icmp slt i32 %43, 0
  %46 = select i1 %.not6.i.i, i32 %45, i32 %40
  %47 = getelementptr inbounds nuw i8, ptr %.12941.i, i64 4
  store i32 %46, ptr %.12941.i, align 4, !tbaa !985
  %indvars.iv.next.i = add nuw nsw i64 %indvars.iv.i, 1
  %48 = getelementptr inbounds nuw i8, ptr %.143.i, i64 8
  %exitcond54.not.i = icmp eq i64 %indvars.iv.next.i, %wide.trip.count.i
  br i1 %exitcond54.not.i, label %._crit_edge.i, label %.lr.ph44.i, !llvm.loop !1244

._crit_edge.i:                                    ; preds = %.lr.ph44.i, %.preheader.i
  %.129.lcssa.i = phi ptr [ %.028.lcssa.i, %.preheader.i ], [ %47, %.lr.ph44.i ]
  %.127.lcssa.i = phi i32 [ %.026.lcssa.i, %.preheader.i ], [ %6, %.lr.ph44.i ]
  %.not.i = icmp slt i32 %.127.lcssa.i, %7
  br i1 %.not.i, label %49, label %_ZN12_GLOBAL__N_15hlineIsNS_12fixedpoint32ELi2ELb1ELi1EE8ResizeCnEPsiPiPS1_S5_iii.exit

49:                                               ; preds = %._crit_edge.i
  %50 = zext nneg i32 %7 to i64
  %51 = getelementptr i32, ptr %2, i64 %50
  %52 = getelementptr i8, ptr %51, i64 -4
  %53 = load i32, ptr %52, align 4, !tbaa !16
  %54 = sext i32 %53 to i64
  %55 = getelementptr inbounds i16, ptr %0, i64 %54
  %56 = load i16, ptr %55, align 2, !tbaa !70
  %57 = sext i16 %56 to i32
  %58 = shl nsw i32 %57, 16
  br label %59

59:                                               ; preds = %59, %49
  %.248.i = phi i32 [ %.127.lcssa.i, %49 ], [ %61, %59 ]
  %.23047.i = phi ptr [ %.129.lcssa.i, %49 ], [ %60, %59 ]
  %60 = getelementptr inbounds nuw i8, ptr %.23047.i, i64 4
  store i32 %58, ptr %.23047.i, align 4, !tbaa !985
  %61 = add nuw nsw i32 %.248.i, 1
  %exitcond55.not.i = icmp eq i32 %61, %7
  br i1 %exitcond55.not.i, label %_ZN12_GLOBAL__N_15hlineIsNS_12fixedpoint32ELi2ELb1ELi1EE8ResizeCnEPsiPiPS1_S5_iii.exit, label %59, !llvm.loop !1245

_ZN12_GLOBAL__N_15hlineIsNS_12fixedpoint32ELi2ELb1ELi1EE8ResizeCnEPsiPiPS1_S5_iii.exit: ; preds = %59, %._crit_edge.i
  ret void
}